; Function Attrs: nounwind uwtable
define internal ptr @_codecs_charmap_decode(ptr readnone captures(none) %0, ptr noundef readonly captures(none) %1, i64 noundef %2) #0 {
  %4 = alloca %struct.Py_buffer, align 8
  %5 = alloca i64, align 8
  call void @llvm.lifetime.start.p0(i64 80, ptr nonnull %4) #5
  call void @llvm.memset.p0.i64(ptr noundef nonnull align 8 dereferenceable(80) %4, i8 0, i64 80, i1 false)
  %6 = add i64 %2, -1
  %or.cond = icmp ult i64 %6, 3
  br i1 %or.cond, label %9, label %7

7:                                                ; preds = %3
  %8 = tail call i32 @_PyArg_CheckPositional(ptr noundef nonnull @.str.35, i64 noundef %2, i64 noundef 1, i64 noundef 3) #5
  %.not = icmp eq i32 %8, 0
  br i1 %.not, label %_codecs_charmap_decode_impl.exit, label %9

9:                                                ; preds = %3, %7
  %10 = load ptr, ptr %1, align 8, !tbaa !22
  %11 = call i32 @PyObject_GetBuffer(ptr noundef %10, ptr noundef nonnull %4, i32 noundef 0) #5
  %.not26 = icmp eq i32 %11, 0
  br i1 %.not26, label %12, label %_codecs_charmap_decode_impl.exit

12:                                               ; preds = %9
  %13 = icmp slt i64 %2, 2
  br i1 %13, label %37, label %14

14:                                               ; preds = %12
  %15 = getelementptr i8, ptr %1, i64 8
  %16 = load ptr, ptr %15, align 8, !tbaa !22
  %17 = icmp eq ptr %16, @_Py_NoneStruct
  br i1 %17, label %32, label %18

18:                                               ; preds = %14
  %19 = getelementptr i8, ptr %16, i64 8
  %.val = load ptr, ptr %19, align 8, !tbaa !4
  %20 = getelementptr i8, ptr %.val, i64 168
  %.val31 = load i64, ptr %20, align 8, !tbaa !10
  %21 = and i64 %.val31, 268435456
  %.not27 = icmp eq i64 %21, 0
  br i1 %.not27, label %31, label %22

22:                                               ; preds = %18
  call void @llvm.lifetime.start.p0(i64 8, ptr nonnull %5) #5
  %23 = call ptr @PyUnicode_AsUTF8AndSize(ptr noundef %16, ptr noundef nonnull %5) #5
  %24 = icmp eq ptr %23, null
  br i1 %24, label %.thread, label %25

25:                                               ; preds = %22
  %26 = call i64 @strlen(ptr noundef nonnull dereferenceable(1) %23) #6
  %27 = load i64, ptr %5, align 8, !tbaa !21
  %.not28 = icmp eq i64 %26, %27
  br i1 %.not28, label %30, label %28

28:                                               ; preds = %25
  %29 = load ptr, ptr @PyExc_ValueError, align 8, !tbaa !22
  call void @PyErr_SetString(ptr noundef %29, ptr noundef nonnull @.str.44) #5
  br label %.thread

.thread:                                          ; preds = %28, %22
  call void @llvm.lifetime.end.p0(i64 8, ptr nonnull %5) #5
  br label %_codecs_charmap_decode_impl.exit

30:                                               ; preds = %25
  call void @llvm.lifetime.end.p0(i64 8, ptr nonnull %5) #5
  br label %32

31:                                               ; preds = %18
  call void @_PyArg_BadArgument(ptr noundef nonnull @.str.35, ptr noundef nonnull @.str.52, ptr noundef nonnull @.str.53, ptr noundef %16) #5
  br label %_codecs_charmap_decode_impl.exit

32:                                               ; preds = %30, %14
  %.1 = phi ptr [ %23, %30 ], [ null, %14 ]
  %33 = icmp eq i64 %2, 2
  br i1 %33, label %37, label %34

34:                                               ; preds = %32
  %35 = getelementptr i8, ptr %1, i64 16
  %36 = load ptr, ptr %35, align 8, !tbaa !22
  br label %37

37:                                               ; preds = %32, %12, %34
  %.020 = phi ptr [ null, %12 ], [ %.1, %32 ], [ %.1, %34 ]
  %.019 = phi ptr [ @_Py_NoneStruct, %12 ], [ @_Py_NoneStruct, %32 ], [ %36, %34 ]
  %38 = icmp eq ptr %.019, @_Py_NoneStruct
  %spec.store.select.i = select i1 %38, ptr null, ptr %.019
  %39 = load ptr, ptr %4, align 8, !tbaa !28
  %40 = getelementptr inbounds nuw i8, ptr %4, i64 16
  %41 = load i64, ptr %40, align 8, !tbaa !31
  %42 = call ptr @PyUnicode_DecodeCharmap(ptr noundef %39, i64 noundef %41, ptr noundef %spec.store.select.i, ptr noundef %.020) #5
  %43 = icmp eq ptr %42, null
  br i1 %43, label %_codecs_charmap_decode_impl.exit, label %44

44:                                               ; preds = %37
  %45 = load i64, ptr %40, align 8, !tbaa !31
  %46 = call ptr (ptr, ...) @Py_BuildValue(ptr noundef nonnull @.str.55, ptr noundef nonnull %42, i64 noundef %45) #5
  br label %_codecs_charmap_decode_impl.exit

_codecs_charmap_decode_impl.exit:                 ; preds = %44, %37, %.thread, %9, %7, %31
  %.021 = phi ptr [ null, %9 ], [ null, %31 ], [ null, %7 ], [ null, %.thread ], [ %46, %44 ], [ null, %37 ]
  %47 = getelementptr inbounds nuw i8, ptr %4, i64 8
  %48 = load ptr, ptr %47, align 8, !tbaa !32
  %.not29 = icmp eq ptr %48, null
  br i1 %.not29, label %50, label %49

49:                                               ; preds = %_codecs_charmap_decode_impl.exit
  call void @PyBuffer_Release(ptr noundef nonnull %4) #5
  br label %50

50:                                               ; preds = %_codecs_charmap_decode_impl.exit, %49
  call void @llvm.lifetime.end.p0(i64 80, ptr nonnull %4) #5
  ret ptr %.021
}